; Function Attrs: mustprogress nounwind uwtable
define noundef i32 @_ZN7glslang10TPpContext15extraTokenCheckEiPNS_8TPpTokenEi(ptr noundef nonnull align 8 dereferenceable(969) %0, i32 noundef %1, ptr noundef %2, i32 noundef %3) local_unnamed_addr #0 align 2 {
  switch i32 %3, label %5 [
    i32 -1, label %.loopexit
    i32 10, label %.loopexit
  ]

5:                                                ; preds = %4
  %switch.tableidx = add i32 %1, -165
  %6 = icmp ult i32 %switch.tableidx, 7
  br i1 %6, label %switch.lookup, label %8

switch.lookup:                                    ; preds = %5
  %7 = zext nneg i32 %switch.tableidx to i64
  %switch.gep = getelementptr inbounds [7 x ptr], ptr @switch.table._ZN7glslang10TPpContext15extraTokenCheckEiPNS_8TPpTokenEi, i64 0, i64 %7
  %switch.load = load ptr, ptr %switch.gep, align 8
  br label %8

8:                                                ; preds = %5, %switch.lookup
  %.0 = phi ptr [ %switch.load, %switch.lookup ], [ @.str.2, %5 ]
  %9 = getelementptr inbounds i8, ptr %0, i64 256
  %10 = load ptr, ptr %9, align 8
  %11 = getelementptr inbounds i8, ptr %10, i64 208
  %12 = load i32, ptr %11, align 8
  %13 = and i32 %12, 1
  %.not = icmp eq i32 %13, 0
  %14 = load ptr, ptr %10, align 8
  %. = select i1 %.not, i64 360, i64 368
  %15 = getelementptr inbounds i8, ptr %14, i64 %.
  %16 = load ptr, ptr %15, align 8
  tail call void (ptr, ptr, ptr, ptr, ptr, ...) %16(ptr noundef nonnull align 8 dereferenceable(1280) %10, ptr noundef nonnull align 8 dereferenceable(24) %2, ptr noundef nonnull @.str.19, ptr noundef nonnull %.0, ptr noundef nonnull @.str.2) #17
  br label %17

17:                                               ; preds = %18, %8
  %.016 = phi i32 [ %3, %8 ], [ %19, %18 ]
  switch i32 %.016, label %18 [
    i32 -1, label %.loopexit
    i32 10, label %.loopexit
  ]

18:                                               ; preds = %17
  %19 = tail call noundef i32 @_ZN7glslang10TPpContext9scanTokenEPNS_8TPpTokenE(ptr noundef nonnull align 8 dereferenceable(969) %0, ptr noundef %2)
  br label %17, !llvm.loop !16

.loopexit:                                        ; preds = %17, %17, %4, %4
  %.1 = phi i32 [ %3, %4 ], [ %3, %4 ], [ %.016, %17 ], [ %.016, %17 ]
  ret i32 %.1
}